target datalayout = "e-m:e-p270:32:32-p271:32:32-p272:64:64-i64:64-i128:128-f80:128-n8:16:32:64-S128"
target triple = "x86_64-pc-linux-gnu"

%struct.nstime_t = type { i64, i32 }
%struct.expert_field = type { i32, i32 }
%struct._packet_info = type { ptr, ptr, i32, i32, %struct.nstime_t, %struct.nstime_t, %struct.nstime_t, i8, ptr, ptr, ptr, ptr, %struct._address, %struct._address, %struct._address, %struct._address, %struct._address, %struct._address, i32, ptr, i8, [3 x i8], %struct.anon.0, i32, i32, i32, i32, ptr, i8, ptr, ptr, i16, i16, i32, i32, i16, i32, i32, ptr, ptr, ptr, i8, i8, i16, i16, i16, i32, i16, i16, ptr, ptr, ptr, ptr, ptr, i32, i32 }
%struct._address = type { i32, i32, ptr, ptr }
%struct.anon.0 = type { i8, [3 x i8] }
%struct._asn1_ctx_t = type { i32, i32, i8, ptr, ptr, ptr, ptr, ptr, %struct.anon.1, %struct.anon.4, %struct.anon.5, ptr }
%struct.anon.1 = type { i32, i8, i8, i8, ptr, ptr, i32, i32, ptr, ptr, ptr, %union.anon }
%union.anon = type { %struct.anon.2 }
%struct.anon.2 = type { ptr }
%struct.anon.4 = type { ptr, ptr, ptr }
%struct.anon.5 = type { i32, i8, ptr, i32, i32, ptr, ptr, ptr, %union.anon.6 }
%union.anon.6 = type { %struct.anon.7 }
%struct.anon.7 = type { ptr }

@hf_camel_timeandtimezone_time = internal global i32 0, align 4
@hf_camel_timeandtimezone_tz = internal global i32 0, align 4
@ett_camel_timeandtimezone = internal global i32 0, align 4
@ei_camel_par_wrong_length = internal global %struct.expert_field zeroinitializer, align 4
@ei_camel_bcd_not_digit = internal global %struct.expert_field zeroinitializer, align 4
@.str.1590 = private unnamed_addr constant [25 x i8] c"GMT %+d hours %d minutes\00", align 1
@.str.1591 = private unnamed_addr constant [21 x i8] c" (%s-%s-%s %s:%s:%s)\00", align 1

; Function Attrs: null_pointer_is_valid sspstrong uwtable
define internal i32 @dissect_camel_TimeAndTimezone(i1 noundef zeroext %0, ptr noundef %1, i32 noundef %2, ptr noundef %3, ptr noundef %4, i32 noundef %5) #0 {
  %7 = alloca i32, align 4
  %8 = alloca i8, align 1
  %9 = alloca ptr, align 8
  %10 = alloca i32, align 4
  %11 = alloca ptr, align 8
  %12 = alloca ptr, align 8
  %13 = alloca i32, align 4
  %14 = alloca ptr, align 8
  %15 = alloca ptr, align 8
  %16 = alloca ptr, align 8
  %17 = alloca ptr, align 8
  %18 = alloca i32, align 4
  %19 = alloca [5 x i8], align 1
  %20 = alloca [3 x i8], align 1
  %21 = alloca [3 x i8], align 1
  %22 = alloca [3 x i8], align 1
  %23 = alloca [3 x i8], align 1
  %24 = alloca [3 x i8], align 1
  %25 = alloca i8, align 1
  %26 = alloca i8, align 1
  %27 = alloca i32, align 4
  %28 = zext i1 %0 to i8
  store i8 %28, ptr %8, align 1
  store ptr %1, ptr %9, align 8
  store i32 %2, ptr %10, align 4
  store ptr %3, ptr %11, align 8
  store ptr %4, ptr %12, align 8
  store i32 %5, ptr %13, align 4
  call void @llvm.lifetime.start.p0(i64 8, ptr %14) #11
  call void @llvm.lifetime.start.p0(i64 8, ptr %15) #11
  call void @llvm.lifetime.start.p0(i64 8, ptr %16) #11
  call void @llvm.lifetime.start.p0(i64 8, ptr %17) #11
  call void @llvm.lifetime.start.p0(i64 4, ptr %18) #11
  call void @llvm.lifetime.start.p0(i64 5, ptr %19) #11
  call void @llvm.lifetime.start.p0(i64 3, ptr %20) #11
  call void @llvm.lifetime.start.p0(i64 3, ptr %21) #11
  call void @llvm.lifetime.start.p0(i64 3, ptr %22) #11
  call void @llvm.lifetime.start.p0(i64 3, ptr %23) #11
  call void @llvm.lifetime.start.p0(i64 3, ptr %24) #11
  call void @llvm.lifetime.start.p0(i64 1, ptr %25) #11
  call void @llvm.lifetime.start.p0(i64 1, ptr %26) #11
  %29 = load i8, ptr %8, align 1, !range !6, !noundef !7
  %30 = trunc i8 %29 to i1
  %31 = load ptr, ptr %11, align 8
  %32 = load ptr, ptr %12, align 8
  %33 = load ptr, ptr %9, align 8
  %34 = load i32, ptr %10, align 4
  %35 = load i32, ptr %13, align 4
  %36 = call i32 @dissect_ber_octet_string(i1 noundef zeroext %30, ptr noundef %31, ptr noundef %32, ptr noundef %33, i32 noundef %34, i32 noundef %35, ptr noundef %14)
  store i32 %36, ptr %10, align 4
  %37 = load ptr, ptr %14, align 8
  %38 = icmp ne ptr %37, null
  br i1 %38, label %41, label %39

39:                                               ; preds = %6
  %40 = load i32, ptr %10, align 4
  store i32 %40, ptr %7, align 4
  store i32 1, ptr %27, align 4
  br label %154

41:                                               ; preds = %6
  %42 = load ptr, ptr %14, align 8
  %43 = call i32 @tvb_reported_length(ptr noundef %42)
  store i32 %43, ptr %18, align 4
  %44 = load i32, ptr %18, align 4
  %45 = icmp ult i32 %44, 8
  br i1 %45, label %46, label %55

46:                                               ; preds = %41
  %47 = load ptr, ptr %11, align 8
  %48 = getelementptr inbounds nuw %struct._asn1_ctx_t, ptr %47, i32 0, i32 3
  %49 = load ptr, ptr %48, align 8
  %50 = load ptr, ptr %11, align 8
  %51 = getelementptr inbounds nuw %struct._asn1_ctx_t, ptr %50, i32 0, i32 4
  %52 = load ptr, ptr %51, align 8
  %53 = call ptr @expert_add_info(ptr noundef %49, ptr noundef %52, ptr noundef @ei_camel_par_wrong_length)
  %54 = load i32, ptr %10, align 4
  store i32 %54, ptr %7, align 4
  store i32 1, ptr %27, align 4
  br label %154

55:                                               ; preds = %41
  %56 = load ptr, ptr %11, align 8
  %57 = getelementptr inbounds nuw %struct._asn1_ctx_t, ptr %56, i32 0, i32 4
  %58 = load ptr, ptr %57, align 8
  %59 = load i32, ptr @ett_camel_timeandtimezone, align 4
  %60 = call ptr @proto_item_add_subtree(ptr noundef %58, i32 noundef %59)
  store ptr %60, ptr %15, align 8
  %61 = load ptr, ptr %15, align 8
  %62 = load i32, ptr @hf_camel_timeandtimezone_time, align 4
  %63 = load ptr, ptr %14, align 8
  %64 = load ptr, ptr %11, align 8
  %65 = getelementptr inbounds nuw %struct._asn1_ctx_t, ptr %64, i32 0, i32 3
  %66 = load ptr, ptr %65, align 8
  %67 = getelementptr inbounds nuw %struct._packet_info, ptr %66, i32 0, i32 51
  %68 = load ptr, ptr %67, align 8
  %69 = call ptr @proto_tree_add_item_ret_display_string(ptr noundef %61, i32 noundef %62, ptr noundef %63, i32 noundef 0, i32 noundef 7, i32 noundef -2147483580, ptr noundef %68, ptr noundef %17)
  store ptr %69, ptr %16, align 8
  %70 = load ptr, ptr %14, align 8
  %71 = call zeroext i8 @tvb_get_uint8(ptr noundef %70, i32 noundef 7)
  store i8 %71, ptr %25, align 1
  %72 = load i8, ptr %25, align 1
  %73 = zext i8 %72 to i32
  %74 = ashr i32 %73, 4
  %75 = load i8, ptr %25, align 1
  %76 = zext i8 %75 to i32
  %77 = and i32 %76, 7
  %78 = mul i32 %77, 10
  %79 = add i32 %74, %78
  %80 = trunc i32 %79 to i8
  store i8 %80, ptr %26, align 1
  %81 = load i8, ptr %25, align 1
  %82 = zext i8 %81 to i32
  %83 = and i32 %82, 8
  %84 = icmp ne i32 %83, 0
  br i1 %84, label %85, label %89

85:                                               ; preds = %55
  %86 = load i8, ptr %26, align 1
  %87 = sext i8 %86 to i32
  %88 = sub i32 0, %87
  br label %92

89:                                               ; preds = %55
  %90 = load i8, ptr %26, align 1
  %91 = sext i8 %90 to i32
  br label %92

92:                                               ; preds = %89, %85
  %93 = phi i32 [ %88, %85 ], [ %91, %89 ]
  %94 = trunc i32 %93 to i8
  store i8 %94, ptr %26, align 1
  %95 = load ptr, ptr %15, align 8
  %96 = load i32, ptr @hf_camel_timeandtimezone_tz, align 4
  %97 = load ptr, ptr %14, align 8
  %98 = load i8, ptr %26, align 1
  %99 = sext i8 %98 to i32
  %100 = load i8, ptr %26, align 1
  %101 = sext i8 %100 to i32
  %102 = sdiv i32 %101, 4
  %103 = load i8, ptr %26, align 1
  %104 = sext i8 %103 to i32
  %105 = srem i32 %104, 4
  %106 = mul i32 %105, 15
  %107 = call ptr (ptr, i32, ptr, i32, i32, i32, ptr, ...) @proto_tree_add_int_format_value(ptr noundef %95, i32 noundef %96, ptr noundef %97, i32 noundef 7, i32 noundef 1, i32 noundef %99, ptr noundef @.str.1590, i32 noundef %102, i32 noundef %106)
  %108 = load ptr, ptr %17, align 8
  %109 = call i64 @strlen(ptr noundef %108) #13
  %110 = icmp ult i64 %109, 14
  br i1 %110, label %115, label %111

111:                                              ; preds = %92
  %112 = load ptr, ptr %17, align 8
  %113 = call ptr @strchr(ptr noundef %112, i32 noundef 63) #13
  %114 = icmp ne ptr %113, null
  br i1 %114, label %115, label %122

115:                                              ; preds = %111, %92
  %116 = load ptr, ptr %11, align 8
  %117 = getelementptr inbounds nuw %struct._asn1_ctx_t, ptr %116, i32 0, i32 3
  %118 = load ptr, ptr %117, align 8
  %119 = load ptr, ptr %16, align 8
  %120 = call ptr @expert_add_info(ptr noundef %118, ptr noundef %119, ptr noundef @ei_camel_bcd_not_digit)
  %121 = load i32, ptr %10, align 4
  store i32 %121, ptr %7, align 4
  store i32 1, ptr %27, align 4
  br label %154

122:                                              ; preds = %111
  %123 = getelementptr inbounds [5 x i8], ptr %19, i64 0, i64 0
  %124 = load ptr, ptr %17, align 8
  %125 = call i64 @g_strlcpy(ptr noundef %123, ptr noundef %124, i64 noundef 5)
  %126 = getelementptr inbounds [3 x i8], ptr %20, i64 0, i64 0
  %127 = load ptr, ptr %17, align 8
  %128 = getelementptr i8, ptr %127, i64 4
  %129 = call i64 @g_strlcpy(ptr noundef %126, ptr noundef %128, i64 noundef 3)
  %130 = getelementptr inbounds [3 x i8], ptr %21, i64 0, i64 0
  %131 = load ptr, ptr %17, align 8
  %132 = getelementptr i8, ptr %131, i64 6
  %133 = call i64 @g_strlcpy(ptr noundef %130, ptr noundef %132, i64 noundef 3)
  %134 = getelementptr inbounds [3 x i8], ptr %22, i64 0, i64 0
  %135 = load ptr, ptr %17, align 8
  %136 = getelementptr i8, ptr %135, i64 8
  %137 = call i64 @g_strlcpy(ptr noundef %134, ptr noundef %136, i64 noundef 3)
  %138 = getelementptr inbounds [3 x i8], ptr %23, i64 0, i64 0
  %139 = load ptr, ptr %17, align 8
  %140 = getelementptr i8, ptr %139, i64 10
  %141 = call i64 @g_strlcpy(ptr noundef %138, ptr noundef %140, i64 noundef 3)
  %142 = getelementptr inbounds [3 x i8], ptr %24, i64 0, i64 0
  %143 = load ptr, ptr %17, align 8
  %144 = getelementptr i8, ptr %143, i64 12
  %145 = call i64 @g_strlcpy(ptr noundef %142, ptr noundef %144, i64 noundef 3)
  %146 = load ptr, ptr %16, align 8
  %147 = getelementptr inbounds [5 x i8], ptr %19, i64 0, i64 0
  %148 = getelementptr inbounds [3 x i8], ptr %20, i64 0, i64 0
  %149 = getelementptr inbounds [3 x i8], ptr %21, i64 0, i64 0
  %150 = getelementptr inbounds [3 x i8], ptr %22, i64 0, i64 0
  %151 = getelementptr inbounds [3 x i8], ptr %23, i64 0, i64 0
  %152 = getelementptr inbounds [3 x i8], ptr %24, i64 0, i64 0
  call void (ptr, ptr, ...) @proto_item_append_text(ptr noundef %146, ptr noundef @.str.1591, ptr noundef %147, ptr noundef %148, ptr noundef %149, ptr noundef %150, ptr noundef %151, ptr noundef %152)
  %153 = load i32, ptr %10, align 4
  store i32 %153, ptr %7, align 4
  store i32 1, ptr %27, align 4
  br label %154

154:                                              ; preds = %122, %115, %46, %39
  call void @llvm.lifetime.end.p0(i64 1, ptr %26) #11
  call void @llvm.lifetime.end.p0(i64 1, ptr %25) #11
  call void @llvm.lifetime.end.p0(i64 3, ptr %24) #11
  call void @llvm.lifetime.end.p0(i64 3, ptr %23) #11
  call void @llvm.lifetime.end.p0(i64 3, ptr %22) #11
  call void @llvm.lifetime.end.p0(i64 3, ptr %21) #11
  call void @llvm.lifetime.end.p0(i64 3, ptr %20) #11
  call void @llvm.lifetime.end.p0(i64 5, ptr %19) #11
  call void @llvm.lifetime.end.p0(i64 4, ptr %18) #11
  call void @llvm.lifetime.end.p0(i64 8, ptr %17) #11
  call void @llvm.lifetime.end.p0(i64 8, ptr %16) #11
  call void @llvm.lifetime.end.p0(i64 8, ptr %15) #11
  call void @llvm.lifetime.end.p0(i64 8, ptr %14) #11
  %155 = load i32, ptr %7, align 4
  ret i32 %155
}