; Function Attrs: null_pointer_is_valid sspstrong uwtable
define internal i32 @dissect_camel_TimeAndTimezone(i1 noundef zeroext %0, ptr noundef %1, i32 noundef %2, ptr noundef %3, ptr noundef %4, i32 noundef %5) #0 {
  %7 = alloca ptr, align 8
  %8 = alloca ptr, align 8
  %9 = alloca [5 x i8], align 1
  %10 = alloca [3 x i8], align 1
  %11 = alloca [3 x i8], align 1
  %12 = alloca [3 x i8], align 1
  %13 = alloca [3 x i8], align 1
  %14 = alloca [3 x i8], align 1
  call void @llvm.lifetime.start.p0(i64 8, ptr nonnull %7) #12
  call void @llvm.lifetime.start.p0(i64 8, ptr nonnull %8) #12
  call void @llvm.lifetime.start.p0(i64 5, ptr nonnull %9) #12
  call void @llvm.lifetime.start.p0(i64 3, ptr nonnull %10) #12
  call void @llvm.lifetime.start.p0(i64 3, ptr nonnull %11) #12
  call void @llvm.lifetime.start.p0(i64 3, ptr nonnull %12) #12
  call void @llvm.lifetime.start.p0(i64 3, ptr nonnull %13) #12
  call void @llvm.lifetime.start.p0(i64 3, ptr nonnull %14) #12
  %15 = call i32 @dissect_ber_octet_string(i1 noundef zeroext %0, ptr noundef %3, ptr noundef %4, ptr noundef %1, i32 noundef %2, i32 noundef %5, ptr noundef nonnull %7)
  %16 = load ptr, ptr %7, align 8
  %.not = icmp eq ptr %16, null
  br i1 %.not, label %79, label %17

17:                                               ; preds = %6
  %18 = call i32 @tvb_reported_length(ptr noundef nonnull %16)
  %19 = icmp ult i32 %18, 8
  br i1 %19, label %20, label %26

20:                                               ; preds = %17
  %21 = getelementptr inbounds nuw i8, ptr %3, i64 16
  %22 = load ptr, ptr %21, align 8
  %23 = getelementptr inbounds nuw i8, ptr %3, i64 24
  %24 = load ptr, ptr %23, align 8
  %25 = call ptr @expert_add_info(ptr noundef %22, ptr noundef %24, ptr noundef nonnull @ei_camel_par_wrong_length)
  br label %79

26:                                               ; preds = %17
  %27 = getelementptr inbounds nuw i8, ptr %3, i64 24
  %28 = load ptr, ptr %27, align 8
  %29 = load i32, ptr @ett_camel_timeandtimezone, align 4
  %30 = call ptr @proto_item_add_subtree(ptr noundef %28, i32 noundef %29)
  %31 = load i32, ptr @hf_camel_timeandtimezone_time, align 4
  %32 = load ptr, ptr %7, align 8
  %33 = getelementptr inbounds nuw i8, ptr %3, i64 16
  %34 = load ptr, ptr %33, align 8
  %35 = getelementptr inbounds nuw i8, ptr %34, i64 408
  %36 = load ptr, ptr %35, align 8
  %37 = call ptr @proto_tree_add_item_ret_display_string(ptr noundef %30, i32 noundef %31, ptr noundef %32, i32 noundef 0, i32 noundef 7, i32 noundef -2147483580, ptr noundef %36, ptr noundef nonnull %8)
  %38 = load ptr, ptr %7, align 8
  %39 = call zeroext i8 @tvb_get_uint8(ptr noundef %38, i32 noundef 7)
  %40 = lshr i8 %39, 4
  %41 = and i8 %39, 7
  %42 = mul nuw nsw i8 %41, 10
  %43 = add nuw nsw i8 %42, %40
  %44 = and i8 %39, 8
  %.not28 = icmp eq i8 %44, 0
  %45 = sub nsw i8 0, %43
  %46 = select i1 %.not28, i8 %43, i8 %45
  %47 = load i32, ptr @hf_camel_timeandtimezone_tz, align 4
  %48 = load ptr, ptr %7, align 8
  %49 = sext i8 %46 to i32
  %50 = sdiv i8 %46, 4
  %.sext = sext i8 %50 to i32
  %51 = srem i8 %46, 4
  %narrow = mul nsw i8 %51, 15
  %52 = sext i8 %narrow to i32
  %53 = call ptr (ptr, i32, ptr, i32, i32, i32, ptr, ...) @proto_tree_add_int_format_value(ptr noundef %30, i32 noundef %47, ptr noundef %48, i32 noundef 7, i32 noundef 1, i32 noundef %49, ptr noundef nonnull @.str.1590, i32 noundef %.sext, i32 noundef %52)
  %54 = load ptr, ptr %8, align 8
  %55 = call i64 @strlen(ptr noundef %54) #14
  %56 = icmp ult i64 %55, 14
  br i1 %56, label %59, label %57

57:                                               ; preds = %26
  %58 = call ptr @strchr(ptr noundef %54, i32 noundef 63) #14
  %.not29 = icmp eq ptr %58, null
  br i1 %.not29, label %62, label %59

59:                                               ; preds = %57, %26
  %60 = load ptr, ptr %33, align 8
  %61 = call ptr @expert_add_info(ptr noundef %60, ptr noundef %37, ptr noundef nonnull @ei_camel_bcd_not_digit)
  br label %79

62:                                               ; preds = %57
  %63 = call i64 @g_strlcpy(ptr noundef nonnull %9, ptr noundef %54, i64 noundef 5)
  %64 = load ptr, ptr %8, align 8
  %65 = getelementptr i8, ptr %64, i64 4
  %66 = call i64 @g_strlcpy(ptr noundef nonnull %10, ptr noundef %65, i64 noundef 3)
  %67 = load ptr, ptr %8, align 8
  %68 = getelementptr i8, ptr %67, i64 6
  %69 = call i64 @g_strlcpy(ptr noundef nonnull %11, ptr noundef %68, i64 noundef 3)
  %70 = load ptr, ptr %8, align 8
  %71 = getelementptr i8, ptr %70, i64 8
  %72 = call i64 @g_strlcpy(ptr noundef nonnull %12, ptr noundef %71, i64 noundef 3)
  %73 = load ptr, ptr %8, align 8
  %74 = getelementptr i8, ptr %73, i64 10
  %75 = call i64 @g_strlcpy(ptr noundef nonnull %13, ptr noundef %74, i64 noundef 3)
  %76 = load ptr, ptr %8, align 8
  %77 = getelementptr i8, ptr %76, i64 12
  %78 = call i64 @g_strlcpy(ptr noundef nonnull %14, ptr noundef %77, i64 noundef 3)
  call void (ptr, ptr, ...) @proto_item_append_text(ptr noundef %37, ptr noundef nonnull @.str.1591, ptr noundef nonnull %9, ptr noundef nonnull %10, ptr noundef nonnull %11, ptr noundef nonnull %12, ptr noundef nonnull %13, ptr noundef nonnull %14)
  br label %79

79:                                               ; preds = %6, %62, %59, %20
  call void @llvm.lifetime.end.p0(i64 3, ptr nonnull %14) #12
  call void @llvm.lifetime.end.p0(i64 3, ptr nonnull %13) #12
  call void @llvm.lifetime.end.p0(i64 3, ptr nonnull %12) #12
  call void @llvm.lifetime.end.p0(i64 3, ptr nonnull %11) #12
  call void @llvm.lifetime.end.p0(i64 3, ptr nonnull %10) #12
  call void @llvm.lifetime.end.p0(i64 5, ptr nonnull %9) #12
  call void @llvm.lifetime.end.p0(i64 8, ptr nonnull %8) #12
  call void @llvm.lifetime.end.p0(i64 8, ptr nonnull %7) #12
  ret i32 %15
}